; Function Attrs: nounwind uwtable
define internal range(i32 0, 2) i32 @test_kdf_kbkdf_zero_output_size() #0 {
  %1 = alloca [32 x i8], align 16
  %2 = alloca i32, align 4
  call void @llvm.lifetime.start.p0(i64 32, ptr nonnull %1) #6
  call void @llvm.memset.p0.i64(ptr noundef nonnull align 16 dereferenceable(32) %1, i8 0, i64 32, i1 false)
  call void @llvm.lifetime.start.p0(i64 4, ptr nonnull %2) #6
  store i32 32, ptr %2, align 4, !tbaa !4
  %3 = call fastcc ptr @construct_kbkdf_params(ptr noundef nonnull @.str.60, ptr noundef nonnull @.str.89, ptr noundef nonnull @test_kdf_kbkdf_zero_output_size.key, i64 noundef 1, ptr noundef %2)
  %4 = call i32 @test_ptr(ptr noundef nonnull @.str.53, i32 noundef 1282, ptr noundef nonnull @.str.62, ptr noundef %3) #6
  %.not = icmp eq i32 %4, 0
  br i1 %.not, label %21, label %5

5:                                                ; preds = %0
  %6 = call ptr @EVP_KDF_fetch(ptr noundef null, ptr noundef nonnull @.str.82, ptr noundef null) #6
  %7 = call ptr @EVP_KDF_CTX_new(ptr noundef %6) #6
  call void @EVP_KDF_free(ptr noundef %6) #6
  %8 = call i32 @test_ptr(ptr noundef nonnull @.str.53, i32 noundef 1287, ptr noundef nonnull @.str.83, ptr noundef %7) #6
  %.not8 = icmp eq i32 %8, 0
  br i1 %.not8, label %19, label %9

9:                                                ; preds = %5
  %10 = call i32 @EVP_KDF_CTX_set_params(ptr noundef %7, ptr noundef %3) #6
  %11 = icmp ne i32 %10, 0
  %12 = zext i1 %11 to i32
  %13 = call i32 @test_true(ptr noundef nonnull @.str.53, i32 noundef 1288, ptr noundef nonnull @.str.65, i32 noundef %12) #6
  %.not9 = icmp eq i32 %13, 0
  br i1 %.not9, label %19, label %14

14:                                               ; preds = %9
  %15 = call i32 @EVP_KDF_derive(ptr noundef %7, ptr noundef nonnull %1, i64 noundef 0, ptr noundef null) #6
  %16 = call i32 @test_int_eq(ptr noundef nonnull @.str.53, i32 noundef 1289, ptr noundef nonnull @.str.95, ptr noundef nonnull @.str.67, i32 noundef %15, i32 noundef 0) #6
  %17 = icmp ne i32 %16, 0
  %18 = zext i1 %17 to i32
  br label %19

19:                                               ; preds = %14, %9, %5
  %20 = phi i32 [ 0, %9 ], [ 0, %5 ], [ %18, %14 ]
  call void @EVP_KDF_CTX_free(ptr noundef %7) #6
  call void @CRYPTO_free(ptr noundef %3, ptr noundef nonnull @.str.53, i32 noundef 1292) #6
  br label %21

21:                                               ; preds = %0, %19
  %.0 = phi i32 [ %20, %19 ], [ 0, %0 ]
  call void @llvm.lifetime.end.p0(i64 4, ptr nonnull %2) #6
  call void @llvm.lifetime.end.p0(i64 32, ptr nonnull %1) #6
  ret i32 %.0
}